target datalayout = "e-m:e-p270:32:32-p271:32:32-p272:64:64-i64:64-i128:128-f80:128-n8:16:32:64-S128"
target triple = "x86_64-pc-linux-gnu"

%struct.H5B_class_t = type { i32, i64, ptr, ptr, ptr, ptr, ptr, ptr, i8, i8, i32, ptr, ptr, ptr, ptr }
%struct.H5O_stab_t = type { i64, i64 }
%struct.H5G_bt_ins_t = type { %struct.H5G_bt_common_t, ptr, i32, ptr }
%struct.H5G_bt_common_t = type { ptr, ptr, i64 }
%struct.H5O_link_t = type { i32, i8, i64, i32, ptr, %union.anon }
%union.anon = type { %struct.H5O_link_ud_t }
%struct.H5O_link_ud_t = type { ptr, i64 }

@H5B_SNODE = external global [1 x %struct.H5B_class_t], align 16
@.str = private unnamed_addr constant [101 x i8] c"generated/home/dtcxzyw/WorkSpace/Projects/compilers/llvm-opt-benchmark/bench/hdf5/hdf5/src/H5Gstab.c\00", align 1
@H5E_SYM_g = external global i64, align 8
@H5E_PROTECT_g = external global i64, align 8
@.str.3 = private unnamed_addr constant [36 x i8] c"unable to protect symbol table heap\00", align 1
@H5E_CANTINSERT_g = external global i64, align 8
@.str.6 = private unnamed_addr constant [38 x i8] c"unable to unprotect symbol table heap\00", align 1
@__func__.H5G__stab_insert_real = private unnamed_addr constant [22 x i8] c"H5G__stab_insert_real\00", align 1
@.str.9 = private unnamed_addr constant [23 x i8] c"unable to insert entry\00", align 1

; Function Attrs: nounwind uwtable
define i32 @H5G__stab_insert_real(ptr noundef %0, ptr noundef %1, ptr noundef %2, i32 noundef %3, ptr noundef %4) #0 {
  %6 = alloca ptr, align 8
  %7 = alloca ptr, align 8
  %8 = alloca ptr, align 8
  %9 = alloca i32, align 4
  %10 = alloca ptr, align 8
  %11 = alloca ptr, align 8
  %12 = alloca %struct.H5G_bt_ins_t, align 8
  %13 = alloca i32, align 4
  %14 = alloca i8, align 1
  store ptr %0, ptr %6, align 8
  store ptr %1, ptr %7, align 8
  store ptr %2, ptr %8, align 8
  store i32 %3, ptr %9, align 4
  store ptr %4, ptr %10, align 8
  store ptr null, ptr %11, align 8
  store i32 0, ptr %13, align 4
  store i8 0, ptr %14, align 1
  %15 = load ptr, ptr %6, align 8
  %16 = load ptr, ptr %7, align 8
  %17 = getelementptr inbounds %struct.H5O_stab_t, ptr %16, i32 0, i32 1
  %18 = load i64, ptr %17, align 8
  %19 = call ptr @H5HL_protect(ptr noundef %15, i64 noundef %18, i32 noundef 0)
  store ptr %19, ptr %11, align 8
  %20 = icmp eq ptr null, %19
  br i1 %20, label %21, label %36

21:                                               ; preds = %5
  br label %22

22:                                               ; preds = %21
  br label %23

23:                                               ; preds = %22
  br label %24

24:                                               ; preds = %23
  %25 = load i64, ptr @H5E_SYM_g, align 8
  %26 = load i64, ptr @H5E_PROTECT_g, align 8
  %27 = call i32 (ptr, ptr, i32, i64, i64, ptr, ...) @H5E_printf_stack(ptr noundef @.str, ptr noundef @__func__.H5G__stab_insert_real, i32 noundef 246, i64 noundef %25, i64 noundef %26, ptr noundef @.str.3)
  br label %28

28:                                               ; preds = %24
  store i8 1, ptr %14, align 1
  %29 = load i8, ptr %14, align 1
  %30 = trunc i8 %29 to i1
  %31 = zext i1 %30 to i8
  store i8 %31, ptr %14, align 1
  br label %32

32:                                               ; preds = %28
  br label %33

33:                                               ; preds = %32
  store i32 -1, ptr %13, align 4
  br label %77

34:                                               ; No predecessors!
  br label %35

35:                                               ; preds = %34
  br label %36

36:                                               ; preds = %35, %5
  %37 = load ptr, ptr %8, align 8
  %38 = getelementptr inbounds %struct.H5O_link_t, ptr %37, i32 0, i32 4
  %39 = load ptr, ptr %38, align 8
  %40 = getelementptr inbounds %struct.H5G_bt_ins_t, ptr %12, i32 0, i32 0
  %41 = getelementptr inbounds %struct.H5G_bt_common_t, ptr %40, i32 0, i32 0
  store ptr %39, ptr %41, align 8
  %42 = load ptr, ptr %11, align 8
  %43 = getelementptr inbounds %struct.H5G_bt_ins_t, ptr %12, i32 0, i32 0
  %44 = getelementptr inbounds %struct.H5G_bt_common_t, ptr %43, i32 0, i32 1
  store ptr %42, ptr %44, align 8
  %45 = load ptr, ptr %11, align 8
  %46 = call i64 @H5HL_heap_get_size(ptr noundef %45)
  %47 = getelementptr inbounds %struct.H5G_bt_ins_t, ptr %12, i32 0, i32 0
  %48 = getelementptr inbounds %struct.H5G_bt_common_t, ptr %47, i32 0, i32 2
  store i64 %46, ptr %48, align 8
  %49 = load ptr, ptr %8, align 8
  %50 = getelementptr inbounds %struct.H5G_bt_ins_t, ptr %12, i32 0, i32 1
  store ptr %49, ptr %50, align 8
  %51 = load i32, ptr %9, align 4
  %52 = getelementptr inbounds %struct.H5G_bt_ins_t, ptr %12, i32 0, i32 2
  store i32 %51, ptr %52, align 8
  %53 = load ptr, ptr %10, align 8
  %54 = getelementptr inbounds %struct.H5G_bt_ins_t, ptr %12, i32 0, i32 3
  store ptr %53, ptr %54, align 8
  %55 = load ptr, ptr %6, align 8
  %56 = load ptr, ptr %7, align 8
  %57 = getelementptr inbounds %struct.H5O_stab_t, ptr %56, i32 0, i32 0
  %58 = load i64, ptr %57, align 8
  %59 = call i32 @H5B_insert(ptr noundef %55, ptr noundef @H5B_SNODE, i64 noundef %58, ptr noundef %12)
  %60 = icmp slt i32 %59, 0
  br i1 %60, label %61, label %76

61:                                               ; preds = %36
  br label %62

62:                                               ; preds = %61
  br label %63

63:                                               ; preds = %62
  br label %64

64:                                               ; preds = %63
  %65 = load i64, ptr @H5E_SYM_g, align 8
  %66 = load i64, ptr @H5E_CANTINSERT_g, align 8
  %67 = call i32 (ptr, ptr, i32, i64, i64, ptr, ...) @H5E_printf_stack(ptr noundef @.str, ptr noundef @__func__.H5G__stab_insert_real, i32 noundef 258, i64 noundef %65, i64 noundef %66, ptr noundef @.str.9)
  br label %68

68:                                               ; preds = %64
  store i8 1, ptr %14, align 1
  %69 = load i8, ptr %14, align 1
  %70 = trunc i8 %69 to i1
  %71 = zext i1 %70 to i8
  store i8 %71, ptr %14, align 1
  br label %72

72:                                               ; preds = %68
  br label %73

73:                                               ; preds = %72
  store i32 -1, ptr %13, align 4
  br label %77

74:                                               ; No predecessors!
  br label %75

75:                                               ; preds = %74
  br label %76

76:                                               ; preds = %75, %36
  br label %77

77:                                               ; preds = %76, %73, %33
  %78 = load ptr, ptr %11, align 8
  %79 = icmp ne ptr %78, null
  br i1 %79, label %80, label %97

80:                                               ; preds = %77
  %81 = load ptr, ptr %11, align 8
  %82 = call i32 @H5HL_unprotect(ptr noundef %81)
  %83 = icmp slt i32 %82, 0
  br i1 %83, label %84, label %97

84:                                               ; preds = %80
  br label %85

85:                                               ; preds = %84
  br label %86

86:                                               ; preds = %85
  br label %87

87:                                               ; preds = %86
  %88 = load i64, ptr @H5E_SYM_g, align 8
  %89 = load i64, ptr @H5E_PROTECT_g, align 8
  %90 = call i32 (ptr, ptr, i32, i64, i64, ptr, ...) @H5E_printf_stack(ptr noundef @.str, ptr noundef @__func__.H5G__stab_insert_real, i32 noundef 263, i64 noundef %88, i64 noundef %89, ptr noundef @.str.6)
  br label %91

91:                                               ; preds = %87
  store i8 1, ptr %14, align 1
  %92 = load i8, ptr %14, align 1
  %93 = trunc i8 %92 to i1
  %94 = zext i1 %93 to i8
  store i8 %94, ptr %14, align 1
  br label %95

95:                                               ; preds = %91
  store i32 -1, ptr %13, align 4
  br label %96

96:                                               ; preds = %95
  br label %97

97:                                               ; preds = %96, %80, %77
  %98 = load i32, ptr %13, align 4
  ret i32 %98
}