; Function Attrs: nounwind uwtable
define range(i32 -1, 1) i32 @H5G__stab_insert_real(ptr noundef %0, ptr nocapture noundef readonly %1, ptr noundef %2, i32 noundef %3, ptr noundef %4) local_unnamed_addr #0 {
  %6 = alloca %struct.H5G_bt_ins_t, align 8
  %7 = getelementptr inbounds i8, ptr %1, i64 8
  %8 = load i64, ptr %7, align 8
  %9 = tail call ptr @H5HL_protect(ptr noundef %0, i64 noundef %8, i32 noundef 0) #6
  %10 = icmp eq ptr %9, null
  br i1 %10, label %27, label %11

11:                                               ; preds = %5
  %12 = getelementptr inbounds i8, ptr %2, i64 24
  %13 = load ptr, ptr %12, align 8
  store ptr %13, ptr %6, align 8
  %14 = getelementptr inbounds i8, ptr %6, i64 8
  store ptr %9, ptr %14, align 8
  %15 = tail call i64 @H5HL_heap_get_size(ptr noundef nonnull %9) #6
  %16 = getelementptr inbounds i8, ptr %6, i64 16
  store i64 %15, ptr %16, align 8
  %17 = getelementptr inbounds i8, ptr %6, i64 24
  store ptr %2, ptr %17, align 8
  %18 = getelementptr inbounds i8, ptr %6, i64 32
  store i32 %3, ptr %18, align 8
  %19 = getelementptr inbounds i8, ptr %6, i64 40
  store ptr %4, ptr %19, align 8
  %20 = load i64, ptr %1, align 8
  %21 = call i32 @H5B_insert(ptr noundef %0, ptr noundef nonnull @H5B_SNODE, i64 noundef %20, ptr noundef nonnull %6) #6
  %22 = icmp slt i32 %21, 0
  br i1 %22, label %23, label %31

23:                                               ; preds = %11
  %24 = load i64, ptr @H5E_SYM_g, align 8
  %25 = load i64, ptr @H5E_CANTINSERT_g, align 8
  %26 = call i32 (ptr, ptr, i32, i64, i64, ptr, ...) @H5E_printf_stack(ptr noundef nonnull @.str, ptr noundef nonnull @__func__.H5G__stab_insert_real, i32 noundef 258, i64 noundef %24, i64 noundef %25, ptr noundef nonnull @.str.9) #6
  br label %31

27:                                               ; preds = %5
  %28 = load i64, ptr @H5E_SYM_g, align 8
  %29 = load i64, ptr @H5E_PROTECT_g, align 8
  %30 = tail call i32 (ptr, ptr, i32, i64, i64, ptr, ...) @H5E_printf_stack(ptr noundef nonnull @.str, ptr noundef nonnull @__func__.H5G__stab_insert_real, i32 noundef 246, i64 noundef %28, i64 noundef %29, ptr noundef nonnull @.str.3) #6
  br label %38

31:                                               ; preds = %11, %23
  %.0.ph = phi i32 [ 0, %11 ], [ -1, %23 ]
  %32 = call i32 @H5HL_unprotect(ptr noundef nonnull %9) #6
  %33 = icmp slt i32 %32, 0
  br i1 %33, label %34, label %38

34:                                               ; preds = %31
  %35 = load i64, ptr @H5E_SYM_g, align 8
  %36 = load i64, ptr @H5E_PROTECT_g, align 8
  %37 = call i32 (ptr, ptr, i32, i64, i64, ptr, ...) @H5E_printf_stack(ptr noundef nonnull @.str, ptr noundef nonnull @__func__.H5G__stab_insert_real, i32 noundef 263, i64 noundef %35, i64 noundef %36, ptr noundef nonnull @.str.6) #6
  br label %38

38:                                               ; preds = %27, %34, %31
  %.1 = phi i32 [ -1, %34 ], [ %.0.ph, %31 ], [ -1, %27 ]
  ret i32 %.1
}